target datalayout = "e-m:e-p270:32:32-p271:32:32-p272:64:64-i64:64-i128:128-f80:128-n8:16:32:64-S128"
target triple = "x86_64-pc-linux-gnu"

%struct.ip_ranges_st = type { i32, ptr, ptr, i32 }
%struct.asn1_string_st = type { i32, i32, ptr, i64 }
%struct.IPAddressFamily_st = type { ptr, ptr }
%struct.IPAddressChoice_st = type { i32, %union.anon }
%union.anon = type { ptr }
%struct.IPAddressOrRange_st = type { i32, %union.anon.0 }
%union.anon.0 = type { ptr }

@.str.14 = private unnamed_addr constant [24 x i8] c"../openssl/test/v3ext.c\00", align 1
@.str.56 = private unnamed_addr constant [5 x i8] c"addr\00", align 1
@.str.57 = private unnamed_addr constant [27 x i8] c"X509v3_addr_canonize(addr)\00", align 1
@.str.58 = private unnamed_addr constant [4 x i8] c"ip1\00", align 1
@.str.59 = private unnamed_addr constant [38 x i8] c"ip1->length == 4 || ip1->length == 16\00", align 1
@.str.60 = private unnamed_addr constant [4 x i8] c"ip2\00", align 1
@.str.61 = private unnamed_addr constant [12 x i8] c"ip2->length\00", align 1
@.str.62 = private unnamed_addr constant [12 x i8] c"ip1->length\00", align 1
@.str.63 = private unnamed_addr constant [47 x i8] c"memcmp(ip1->data, ip2->data, ip1->length) <= 0\00", align 1
@.str.64 = private unnamed_addr constant [71 x i8] c"X509v3_addr_add_range(addr, ranges[i].afi, NULL, ip1->data, ip2->data)\00", align 1
@.str.65 = private unnamed_addr constant [31 x i8] c"X509v3_addr_is_canonical(addr)\00", align 1
@.str.84 = private unnamed_addr constant [29 x i8] c"sk_IPAddressFamily_num(addr)\00", align 1
@.str.85 = private unnamed_addr constant [2 x i8] c"1\00", align 1
@.str.86 = private unnamed_addr constant [4 x i8] c"fam\00", align 1
@.str.87 = private unnamed_addr constant [27 x i8] c"fam->ipAddressChoice->type\00", align 1
@.str.88 = private unnamed_addr constant [34 x i8] c"IPAddressChoice_addressesOrRanges\00", align 1
@.str.89 = private unnamed_addr constant [67 x i8] c"sk_IPAddressOrRange_num(fam->ipAddressChoice->u.addressesOrRanges)\00", align 1
@.str.90 = private unnamed_addr constant [5 x i8] c"aorr\00", align 1
@.str.91 = private unnamed_addr constant [11 x i8] c"aorr->type\00", align 1
@.str.92 = private unnamed_addr constant [5 x i8] c"type\00", align 1

; Function Attrs: inlinehint nounwind uwtable
define internal ptr @ossl_check_const_IPAddressOrRange_sk_type(ptr noundef %0) #4 {
  %2 = alloca ptr, align 8
  store ptr %0, ptr %2, align 8, !tbaa !55
  %3 = load ptr, ptr %2, align 8, !tbaa !55
  ret ptr %3
}

; Function Attrs: inlinehint nounwind uwtable
define internal ptr @ossl_check_const_IPAddressFamily_sk_type(ptr noundef %0) #4 {
  %2 = alloca ptr, align 8
  store ptr %0, ptr %2, align 8, !tbaa !21
  %3 = load ptr, ptr %2, align 8, !tbaa !21
  ret ptr %3
}

; Function Attrs: inlinehint nounwind uwtable
define internal ptr @ossl_check_IPAddressFamily_freefunc_type(ptr noundef %0) #4 {
  %2 = alloca ptr, align 8
  store ptr %0, ptr %2, align 8, !tbaa !54
  %3 = load ptr, ptr %2, align 8, !tbaa !54
  ret ptr %3
}

; Function Attrs: inlinehint nounwind uwtable
define internal ptr @ossl_check_IPAddressFamily_sk_type(ptr noundef %0) #4 {
  %2 = alloca ptr, align 8
  store ptr %0, ptr %2, align 8, !tbaa !21
  %3 = load ptr, ptr %2, align 8, !tbaa !21
  ret ptr %3
}

; Function Attrs: nounwind uwtable
define internal i32 @check_addr(ptr noundef %0, i32 noundef %1) #0 {
  %3 = alloca i32, align 4
  %4 = alloca ptr, align 8
  %5 = alloca i32, align 4
  %6 = alloca ptr, align 8
  %7 = alloca ptr, align 8
  %8 = alloca i32, align 4
  store ptr %0, ptr %4, align 8, !tbaa !21
  store i32 %1, ptr %5, align 4, !tbaa !13
  call void @llvm.lifetime.start.p0(i64 8, ptr %6) #6
  call void @llvm.lifetime.start.p0(i64 8, ptr %7) #6
  %9 = load ptr, ptr %4, align 8, !tbaa !21
  %10 = call ptr @ossl_check_const_IPAddressFamily_sk_type(ptr noundef %9)
  %11 = call i32 @OPENSSL_sk_num(ptr noundef %10)
  %12 = call i32 @test_int_eq(ptr noundef @.str.14, i32 noundef 151, ptr noundef @.str.84, ptr noundef @.str.85, i32 noundef %11, i32 noundef 1)
  %13 = icmp ne i32 %12, 0
  br i1 %13, label %15, label %14

14:                                               ; preds = %2
  store i32 0, ptr %3, align 4
  store i32 1, ptr %8, align 4
  br label %64

15:                                               ; preds = %2
  %16 = load ptr, ptr %4, align 8, !tbaa !21
  %17 = call ptr @ossl_check_const_IPAddressFamily_sk_type(ptr noundef %16)
  %18 = call ptr @OPENSSL_sk_value(ptr noundef %17, i32 noundef 0)
  store ptr %18, ptr %6, align 8, !tbaa !39
  %19 = load ptr, ptr %6, align 8, !tbaa !39
  %20 = call i32 @test_ptr(ptr noundef @.str.14, i32 noundef 155, ptr noundef @.str.86, ptr noundef %19)
  %21 = icmp ne i32 %20, 0
  br i1 %21, label %23, label %22

22:                                               ; preds = %15
  store i32 0, ptr %3, align 4
  store i32 1, ptr %8, align 4
  br label %64

23:                                               ; preds = %15
  %24 = load ptr, ptr %6, align 8, !tbaa !39
  %25 = getelementptr inbounds nuw %struct.IPAddressFamily_st, ptr %24, i32 0, i32 1
  %26 = load ptr, ptr %25, align 8, !tbaa !42
  %27 = getelementptr inbounds nuw %struct.IPAddressChoice_st, ptr %26, i32 0, i32 0
  %28 = load i32, ptr %27, align 8, !tbaa !46
  %29 = call i32 @test_int_eq(ptr noundef @.str.14, i32 noundef 158, ptr noundef @.str.87, ptr noundef @.str.88, i32 noundef %28, i32 noundef 1)
  %30 = icmp ne i32 %29, 0
  br i1 %30, label %32, label %31

31:                                               ; preds = %23
  store i32 0, ptr %3, align 4
  store i32 1, ptr %8, align 4
  br label %64

32:                                               ; preds = %23
  %33 = load ptr, ptr %6, align 8, !tbaa !39
  %34 = getelementptr inbounds nuw %struct.IPAddressFamily_st, ptr %33, i32 0, i32 1
  %35 = load ptr, ptr %34, align 8, !tbaa !42
  %36 = getelementptr inbounds nuw %struct.IPAddressChoice_st, ptr %35, i32 0, i32 1
  %37 = load ptr, ptr %36, align 8, !tbaa !41
  %38 = call ptr @ossl_check_const_IPAddressOrRange_sk_type(ptr noundef %37)
  %39 = call i32 @OPENSSL_sk_num(ptr noundef %38)
  %40 = call i32 @test_int_eq(ptr noundef @.str.14, i32 noundef 161, ptr noundef @.str.89, ptr noundef @.str.85, i32 noundef %39, i32 noundef 1)
  %41 = icmp ne i32 %40, 0
  br i1 %41, label %43, label %42

42:                                               ; preds = %32
  store i32 0, ptr %3, align 4
  store i32 1, ptr %8, align 4
  br label %64

43:                                               ; preds = %32
  %44 = load ptr, ptr %6, align 8, !tbaa !39
  %45 = getelementptr inbounds nuw %struct.IPAddressFamily_st, ptr %44, i32 0, i32 1
  %46 = load ptr, ptr %45, align 8, !tbaa !42
  %47 = getelementptr inbounds nuw %struct.IPAddressChoice_st, ptr %46, i32 0, i32 1
  %48 = load ptr, ptr %47, align 8, !tbaa !41
  %49 = call ptr @ossl_check_const_IPAddressOrRange_sk_type(ptr noundef %48)
  %50 = call ptr @OPENSSL_sk_value(ptr noundef %49, i32 noundef 0)
  store ptr %50, ptr %7, align 8, !tbaa !50
  %51 = load ptr, ptr %7, align 8, !tbaa !50
  %52 = call i32 @test_ptr(ptr noundef @.str.14, i32 noundef 165, ptr noundef @.str.90, ptr noundef %51)
  %53 = icmp ne i32 %52, 0
  br i1 %53, label %55, label %54

54:                                               ; preds = %43
  store i32 0, ptr %3, align 4
  store i32 1, ptr %8, align 4
  br label %64

55:                                               ; preds = %43
  %56 = load ptr, ptr %7, align 8, !tbaa !50
  %57 = getelementptr inbounds nuw %struct.IPAddressOrRange_st, ptr %56, i32 0, i32 0
  %58 = load i32, ptr %57, align 8, !tbaa !52
  %59 = load i32, ptr %5, align 4, !tbaa !13
  %60 = call i32 @test_int_eq(ptr noundef @.str.14, i32 noundef 168, ptr noundef @.str.91, ptr noundef @.str.92, i32 noundef %58, i32 noundef %59)
  %61 = icmp ne i32 %60, 0
  br i1 %61, label %63, label %62

62:                                               ; preds = %55
  store i32 0, ptr %3, align 4
  store i32 1, ptr %8, align 4
  br label %64

63:                                               ; preds = %55
  store i32 1, ptr %3, align 4
  store i32 1, ptr %8, align 4
  br label %64

64:                                               ; preds = %63, %62, %54, %42, %31, %22, %14
  call void @llvm.lifetime.end.p0(i64 8, ptr %7) #6
  call void @llvm.lifetime.end.p0(i64 8, ptr %6) #6
  %65 = load i32, ptr %3, align 4
  ret i32 %65
}

; Function Attrs: nounwind uwtable
define internal i32 @test_addr_ranges() #0 {
  %1 = alloca ptr, align 8
  %2 = alloca ptr, align 8
  %3 = alloca ptr, align 8
  %4 = alloca i64, align 8
  %5 = alloca i32, align 4
  call void @llvm.lifetime.start.p0(i64 8, ptr %1) #6
  store ptr null, ptr %1, align 8, !tbaa !21
  call void @llvm.lifetime.start.p0(i64 8, ptr %2) #6
  store ptr null, ptr %2, align 8, !tbaa !17
  call void @llvm.lifetime.start.p0(i64 8, ptr %3) #6
  store ptr null, ptr %3, align 8, !tbaa !17
  call void @llvm.lifetime.start.p0(i64 8, ptr %4) #6
  call void @llvm.lifetime.start.p0(i64 4, ptr %5) #6
  store i32 0, ptr %5, align 4, !tbaa !13
  store i64 0, ptr %4, align 8, !tbaa !15
  br label %6

6:                                                ; preds = %131, %0
  %7 = load i64, ptr %4, align 8, !tbaa !15
  %8 = icmp ult i64 %7, 18
  br i1 %8, label %9, label %134

9:                                                ; preds = %6
  %10 = call ptr @OPENSSL_sk_new_null()
  store ptr %10, ptr %1, align 8, !tbaa !21
  %11 = load ptr, ptr %1, align 8, !tbaa !21
  %12 = call i32 @test_ptr(ptr noundef @.str.14, i32 noundef 183, ptr noundef @.str.56, ptr noundef %11)
  %13 = icmp ne i32 %12, 0
  br i1 %13, label %15, label %14

14:                                               ; preds = %9
  br label %135

15:                                               ; preds = %9
  %16 = load ptr, ptr %1, align 8, !tbaa !21
  %17 = call i32 @X509v3_addr_canonize(ptr noundef %16)
  %18 = icmp ne i32 %17, 0
  %19 = zext i1 %18 to i32
  %20 = call i32 @test_true(ptr noundef @.str.14, i32 noundef 189, ptr noundef @.str.57, i32 noundef %19)
  %21 = icmp ne i32 %20, 0
  br i1 %21, label %23, label %22

22:                                               ; preds = %15
  br label %135

23:                                               ; preds = %15
  %24 = load i64, ptr %4, align 8, !tbaa !15
  %25 = getelementptr inbounds nuw [18 x %struct.ip_ranges_st], ptr @ranges, i64 0, i64 %24
  %26 = getelementptr inbounds nuw %struct.ip_ranges_st, ptr %25, i32 0, i32 1
  %27 = load ptr, ptr %26, align 8, !tbaa !23
  %28 = call ptr @a2i_IPADDRESS(ptr noundef %27)
  store ptr %28, ptr %2, align 8, !tbaa !17
  %29 = load ptr, ptr %2, align 8, !tbaa !17
  %30 = call i32 @test_ptr(ptr noundef @.str.14, i32 noundef 193, ptr noundef @.str.58, ptr noundef %29)
  %31 = icmp ne i32 %30, 0
  br i1 %31, label %33, label %32

32:                                               ; preds = %23
  br label %135

33:                                               ; preds = %23
  %34 = load ptr, ptr %2, align 8, !tbaa !17
  %35 = getelementptr inbounds nuw %struct.asn1_string_st, ptr %34, i32 0, i32 0
  %36 = load i32, ptr %35, align 8, !tbaa !25
  %37 = icmp eq i32 %36, 4
  br i1 %37, label %43, label %38

38:                                               ; preds = %33
  %39 = load ptr, ptr %2, align 8, !tbaa !17
  %40 = getelementptr inbounds nuw %struct.asn1_string_st, ptr %39, i32 0, i32 0
  %41 = load i32, ptr %40, align 8, !tbaa !25
  %42 = icmp eq i32 %41, 16
  br label %43

43:                                               ; preds = %38, %33
  %44 = phi i1 [ true, %33 ], [ %42, %38 ]
  %45 = zext i1 %44 to i32
  %46 = icmp ne i32 %45, 0
  %47 = zext i1 %46 to i32
  %48 = call i32 @test_true(ptr noundef @.str.14, i32 noundef 195, ptr noundef @.str.59, i32 noundef %47)
  %49 = icmp ne i32 %48, 0
  br i1 %49, label %51, label %50

50:                                               ; preds = %43
  br label %135

51:                                               ; preds = %43
  %52 = load i64, ptr %4, align 8, !tbaa !15
  %53 = getelementptr inbounds nuw [18 x %struct.ip_ranges_st], ptr @ranges, i64 0, i64 %52
  %54 = getelementptr inbounds nuw %struct.ip_ranges_st, ptr %53, i32 0, i32 2
  %55 = load ptr, ptr %54, align 16, !tbaa !27
  %56 = call ptr @a2i_IPADDRESS(ptr noundef %55)
  store ptr %56, ptr %3, align 8, !tbaa !17
  %57 = load ptr, ptr %3, align 8, !tbaa !17
  %58 = call i32 @test_ptr(ptr noundef @.str.14, i32 noundef 198, ptr noundef @.str.60, ptr noundef %57)
  %59 = icmp ne i32 %58, 0
  br i1 %59, label %61, label %60

60:                                               ; preds = %51
  br label %135

61:                                               ; preds = %51
  %62 = load ptr, ptr %3, align 8, !tbaa !17
  %63 = getelementptr inbounds nuw %struct.asn1_string_st, ptr %62, i32 0, i32 0
  %64 = load i32, ptr %63, align 8, !tbaa !25
  %65 = load ptr, ptr %2, align 8, !tbaa !17
  %66 = getelementptr inbounds nuw %struct.asn1_string_st, ptr %65, i32 0, i32 0
  %67 = load i32, ptr %66, align 8, !tbaa !25
  %68 = call i32 @test_int_eq(ptr noundef @.str.14, i32 noundef 200, ptr noundef @.str.61, ptr noundef @.str.62, i32 noundef %64, i32 noundef %67)
  %69 = icmp ne i32 %68, 0
  br i1 %69, label %71, label %70

70:                                               ; preds = %61
  br label %135

71:                                               ; preds = %61
  %72 = load ptr, ptr %2, align 8, !tbaa !17
  %73 = getelementptr inbounds nuw %struct.asn1_string_st, ptr %72, i32 0, i32 2
  %74 = load ptr, ptr %73, align 8, !tbaa !28
  %75 = load ptr, ptr %3, align 8, !tbaa !17
  %76 = getelementptr inbounds nuw %struct.asn1_string_st, ptr %75, i32 0, i32 2
  %77 = load ptr, ptr %76, align 8, !tbaa !28
  %78 = load ptr, ptr %2, align 8, !tbaa !17
  %79 = getelementptr inbounds nuw %struct.asn1_string_st, ptr %78, i32 0, i32 0
  %80 = load i32, ptr %79, align 8, !tbaa !25
  %81 = sext i32 %80 to i64
  %82 = call i32 @memcmp(ptr noundef %74, ptr noundef %77, i64 noundef %81) #7
  %83 = icmp sle i32 %82, 0
  %84 = zext i1 %83 to i32
  %85 = icmp ne i32 %84, 0
  %86 = zext i1 %85 to i32
  %87 = call i32 @test_true(ptr noundef @.str.14, i32 noundef 202, ptr noundef @.str.63, i32 noundef %86)
  %88 = icmp ne i32 %87, 0
  br i1 %88, label %90, label %89

89:                                               ; preds = %71
  br label %135

90:                                               ; preds = %71
  %91 = load ptr, ptr %1, align 8, !tbaa !21
  %92 = load i64, ptr %4, align 8, !tbaa !15
  %93 = getelementptr inbounds nuw [18 x %struct.ip_ranges_st], ptr @ranges, i64 0, i64 %92
  %94 = getelementptr inbounds nuw %struct.ip_ranges_st, ptr %93, i32 0, i32 0
  %95 = load i32, ptr %94, align 16, !tbaa !29
  %96 = load ptr, ptr %2, align 8, !tbaa !17
  %97 = getelementptr inbounds nuw %struct.asn1_string_st, ptr %96, i32 0, i32 2
  %98 = load ptr, ptr %97, align 8, !tbaa !28
  %99 = load ptr, ptr %3, align 8, !tbaa !17
  %100 = getelementptr inbounds nuw %struct.asn1_string_st, ptr %99, i32 0, i32 2
  %101 = load ptr, ptr %100, align 8, !tbaa !28
  %102 = call i32 @X509v3_addr_add_range(ptr noundef %91, i32 noundef %95, ptr noundef null, ptr noundef %98, ptr noundef %101)
  %103 = icmp ne i32 %102, 0
  %104 = zext i1 %103 to i32
  %105 = call i32 @test_true(ptr noundef @.str.14, i32 noundef 205, ptr noundef @.str.64, i32 noundef %104)
  %106 = icmp ne i32 %105, 0
  br i1 %106, label %108, label %107

107:                                              ; preds = %90
  br label %135

108:                                              ; preds = %90
  %109 = load ptr, ptr %1, align 8, !tbaa !21
  %110 = call i32 @X509v3_addr_is_canonical(ptr noundef %109)
  %111 = icmp ne i32 %110, 0
  %112 = zext i1 %111 to i32
  %113 = call i32 @test_true(ptr noundef @.str.14, i32 noundef 208, ptr noundef @.str.65, i32 noundef %112)
  %114 = icmp ne i32 %113, 0
  br i1 %114, label %116, label %115

115:                                              ; preds = %108
  br label %135

116:                                              ; preds = %108
  %117 = load ptr, ptr %1, align 8, !tbaa !21
  %118 = load i64, ptr %4, align 8, !tbaa !15
  %119 = getelementptr inbounds nuw [18 x %struct.ip_ranges_st], ptr @ranges, i64 0, i64 %118
  %120 = getelementptr inbounds nuw %struct.ip_ranges_st, ptr %119, i32 0, i32 3
  %121 = load i32, ptr %120, align 8, !tbaa !30
  %122 = call i32 @check_addr(ptr noundef %117, i32 noundef %121)
  %123 = icmp ne i32 %122, 0
  br i1 %123, label %125, label %124

124:                                              ; preds = %116
  br label %135

125:                                              ; preds = %116
  %126 = load ptr, ptr %1, align 8, !tbaa !21
  %127 = call ptr @ossl_check_IPAddressFamily_sk_type(ptr noundef %126)
  %128 = call ptr @ossl_check_IPAddressFamily_freefunc_type(ptr noundef @IPAddressFamily_free)
  call void @OPENSSL_sk_pop_free(ptr noundef %127, ptr noundef %128)
  store ptr null, ptr %1, align 8, !tbaa !21
  %129 = load ptr, ptr %2, align 8, !tbaa !17
  call void @ASN1_OCTET_STRING_free(ptr noundef %129)
  %130 = load ptr, ptr %3, align 8, !tbaa !17
  call void @ASN1_OCTET_STRING_free(ptr noundef %130)
  store ptr null, ptr %3, align 8, !tbaa !17
  store ptr null, ptr %2, align 8, !tbaa !17
  br label %131

131:                                              ; preds = %125
  %132 = load i64, ptr %4, align 8, !tbaa !15
  %133 = add i64 %132, 1
  store i64 %133, ptr %4, align 8, !tbaa !15
  br label %6, !llvm.loop !31

134:                                              ; preds = %6
  store i32 1, ptr %5, align 4, !tbaa !13
  br label %135

135:                                              ; preds = %134, %124, %115, %107, %89, %70, %60, %50, %32, %22, %14
  %136 = load ptr, ptr %1, align 8, !tbaa !21
  %137 = call ptr @ossl_check_IPAddressFamily_sk_type(ptr noundef %136)
  %138 = call ptr @ossl_check_IPAddressFamily_freefunc_type(ptr noundef @IPAddressFamily_free)
  call void @OPENSSL_sk_pop_free(ptr noundef %137, ptr noundef %138)
  %139 = load ptr, ptr %2, align 8, !tbaa !17
  call void @ASN1_OCTET_STRING_free(ptr noundef %139)
  %140 = load ptr, ptr %3, align 8, !tbaa !17
  call void @ASN1_OCTET_STRING_free(ptr noundef %140)
  %141 = load i32, ptr %5, align 4, !tbaa !13
  call void @llvm.lifetime.end.p0(i64 4, ptr %5) #6
  call void @llvm.lifetime.end.p0(i64 8, ptr %4) #6
  call void @llvm.lifetime.end.p0(i64 8, ptr %3) #6
  call void @llvm.lifetime.end.p0(i64 8, ptr %2) #6
  call void @llvm.lifetime.end.p0(i64 8, ptr %1) #6
  ret i32 %141
}