; Function Attrs: nounwind uwtable
define internal range(i32 0, 2) i32 @test_addr_ranges() #1 {
  br label %1

1:                                                ; preds = %0, %81
  %.02846 = phi i64 [ 0, %0 ], [ %82, %81 ]
  %2 = tail call ptr @OPENSSL_sk_new_null() #6
  %3 = tail call i32 @test_ptr(ptr noundef nonnull @.str.14, i32 noundef 183, ptr noundef nonnull @.str.56, ptr noundef %2) #6
  %.not = icmp eq i32 %3, 0
  br i1 %.not, label %check_addr.exit.thread, label %4

4:                                                ; preds = %1
  %5 = tail call i32 @X509v3_addr_canonize(ptr noundef %2) #6
  %6 = icmp ne i32 %5, 0
  %7 = zext i1 %6 to i32
  %8 = tail call i32 @test_true(ptr noundef nonnull @.str.14, i32 noundef 189, ptr noundef nonnull @.str.57, i32 noundef %7) #6
  %.not35 = icmp eq i32 %8, 0
  br i1 %.not35, label %check_addr.exit.thread, label %9

9:                                                ; preds = %4
  %10 = getelementptr inbounds nuw [18 x %struct.ip_ranges_st], ptr @ranges, i64 0, i64 %.02846
  %11 = getelementptr inbounds nuw i8, ptr %10, i64 8
  %12 = load ptr, ptr %11, align 8, !tbaa !9
  %13 = tail call ptr @a2i_IPADDRESS(ptr noundef %12) #6
  %14 = tail call i32 @test_ptr(ptr noundef nonnull @.str.14, i32 noundef 193, ptr noundef nonnull @.str.58, ptr noundef %13) #6
  %.not36 = icmp eq i32 %14, 0
  br i1 %.not36, label %check_addr.exit.thread, label %15

15:                                               ; preds = %9
  %16 = load i32, ptr %13, align 8, !tbaa !12
  %17 = icmp eq i32 %16, 4
  %18 = icmp eq i32 %16, 16
  %narrow = or i1 %17, %18
  %19 = zext i1 %narrow to i32
  %20 = tail call i32 @test_true(ptr noundef nonnull @.str.14, i32 noundef 195, ptr noundef nonnull @.str.59, i32 noundef %19) #6
  %.not37 = icmp eq i32 %20, 0
  br i1 %.not37, label %check_addr.exit.thread, label %21

21:                                               ; preds = %15
  %22 = getelementptr inbounds nuw i8, ptr %10, i64 16
  %23 = load ptr, ptr %22, align 16, !tbaa !15
  %24 = tail call ptr @a2i_IPADDRESS(ptr noundef %23) #6
  %25 = tail call i32 @test_ptr(ptr noundef nonnull @.str.14, i32 noundef 198, ptr noundef nonnull @.str.60, ptr noundef %24) #6
  %.not38 = icmp eq i32 %25, 0
  br i1 %.not38, label %check_addr.exit.thread, label %26

26:                                               ; preds = %21
  %27 = load i32, ptr %24, align 8, !tbaa !12
  %28 = load i32, ptr %13, align 8, !tbaa !12
  %29 = tail call i32 @test_int_eq(ptr noundef nonnull @.str.14, i32 noundef 200, ptr noundef nonnull @.str.61, ptr noundef nonnull @.str.62, i32 noundef %27, i32 noundef %28) #6
  %.not39 = icmp eq i32 %29, 0
  br i1 %.not39, label %check_addr.exit.thread, label %30

30:                                               ; preds = %26
  %31 = getelementptr inbounds nuw i8, ptr %13, i64 8
  %32 = load ptr, ptr %31, align 8, !tbaa !16
  %33 = getelementptr inbounds nuw i8, ptr %24, i64 8
  %34 = load ptr, ptr %33, align 8, !tbaa !16
  %35 = load i32, ptr %13, align 8, !tbaa !12
  %36 = sext i32 %35 to i64
  %37 = tail call i32 @memcmp(ptr noundef %32, ptr noundef %34, i64 noundef %36) #7
  %38 = icmp slt i32 %37, 1
  %39 = zext i1 %38 to i32
  %40 = tail call i32 @test_true(ptr noundef nonnull @.str.14, i32 noundef 202, ptr noundef nonnull @.str.63, i32 noundef %39) #6
  %.not40 = icmp eq i32 %40, 0
  br i1 %.not40, label %check_addr.exit.thread, label %41

41:                                               ; preds = %30
  %42 = load i32, ptr %10, align 16, !tbaa !17
  %43 = load ptr, ptr %31, align 8, !tbaa !16
  %44 = load ptr, ptr %33, align 8, !tbaa !16
  %45 = tail call i32 @X509v3_addr_add_range(ptr noundef %2, i32 noundef %42, ptr noundef null, ptr noundef %43, ptr noundef %44) #6
  %46 = icmp ne i32 %45, 0
  %47 = zext i1 %46 to i32
  %48 = tail call i32 @test_true(ptr noundef nonnull @.str.14, i32 noundef 205, ptr noundef nonnull @.str.64, i32 noundef %47) #6
  %.not41 = icmp eq i32 %48, 0
  br i1 %.not41, label %check_addr.exit.thread, label %49

49:                                               ; preds = %41
  %50 = tail call i32 @X509v3_addr_is_canonical(ptr noundef %2) #6
  %51 = icmp ne i32 %50, 0
  %52 = zext i1 %51 to i32
  %53 = tail call i32 @test_true(ptr noundef nonnull @.str.14, i32 noundef 208, ptr noundef nonnull @.str.65, i32 noundef %52) #6
  %.not42 = icmp eq i32 %53, 0
  br i1 %.not42, label %check_addr.exit.thread, label %54

54:                                               ; preds = %49
  %55 = getelementptr inbounds nuw i8, ptr %10, i64 24
  %56 = load i32, ptr %55, align 8, !tbaa !18
  %57 = tail call i32 @OPENSSL_sk_num(ptr noundef %2) #6
  %58 = tail call i32 @test_int_eq(ptr noundef nonnull @.str.14, i32 noundef 151, ptr noundef nonnull @.str.84, ptr noundef nonnull @.str.85, i32 noundef %57, i32 noundef 1) #6
  %.not.i = icmp eq i32 %58, 0
  br i1 %.not.i, label %check_addr.exit.thread, label %59

59:                                               ; preds = %54
  %60 = tail call ptr @OPENSSL_sk_value(ptr noundef %2, i32 noundef 0) #6
  %61 = tail call i32 @test_ptr(ptr noundef nonnull @.str.14, i32 noundef 155, ptr noundef nonnull @.str.86, ptr noundef %60) #6
  %.not9.i = icmp eq i32 %61, 0
  br i1 %.not9.i, label %check_addr.exit.thread, label %62

62:                                               ; preds = %59
  %63 = getelementptr inbounds nuw i8, ptr %60, i64 8
  %64 = load ptr, ptr %63, align 8, !tbaa !19
  %65 = load i32, ptr %64, align 8, !tbaa !23
  %66 = tail call i32 @test_int_eq(ptr noundef nonnull @.str.14, i32 noundef 158, ptr noundef nonnull @.str.87, ptr noundef nonnull @.str.88, i32 noundef %65, i32 noundef 1) #6
  %.not10.i = icmp eq i32 %66, 0
  br i1 %.not10.i, label %check_addr.exit.thread, label %67

67:                                               ; preds = %62
  %68 = load ptr, ptr %63, align 8, !tbaa !19
  %69 = getelementptr inbounds nuw i8, ptr %68, i64 8
  %70 = load ptr, ptr %69, align 8, !tbaa !25
  %71 = tail call i32 @OPENSSL_sk_num(ptr noundef %70) #6
  %72 = tail call i32 @test_int_eq(ptr noundef nonnull @.str.14, i32 noundef 161, ptr noundef nonnull @.str.89, ptr noundef nonnull @.str.85, i32 noundef %71, i32 noundef 1) #6
  %.not11.i = icmp eq i32 %72, 0
  br i1 %.not11.i, label %check_addr.exit.thread, label %73

73:                                               ; preds = %67
  %74 = load ptr, ptr %63, align 8, !tbaa !19
  %75 = getelementptr inbounds nuw i8, ptr %74, i64 8
  %76 = load ptr, ptr %75, align 8, !tbaa !25
  %77 = tail call ptr @OPENSSL_sk_value(ptr noundef %76, i32 noundef 0) #6
  %78 = tail call i32 @test_ptr(ptr noundef nonnull @.str.14, i32 noundef 165, ptr noundef nonnull @.str.90, ptr noundef %77) #6
  %.not12.i = icmp eq i32 %78, 0
  br i1 %.not12.i, label %check_addr.exit.thread, label %check_addr.exit

check_addr.exit:                                  ; preds = %73
  %79 = load i32, ptr %77, align 8, !tbaa !26
  %80 = tail call i32 @test_int_eq(ptr noundef nonnull @.str.14, i32 noundef 168, ptr noundef nonnull @.str.91, ptr noundef nonnull @.str.92, i32 noundef %79, i32 noundef %56) #6
  %.not13.i.not = icmp eq i32 %80, 0
  br i1 %.not13.i.not, label %check_addr.exit.thread, label %81

81:                                               ; preds = %check_addr.exit
  tail call void @OPENSSL_sk_pop_free(ptr noundef %2, ptr noundef nonnull @IPAddressFamily_free) #6
  tail call void @ASN1_OCTET_STRING_free(ptr noundef nonnull %13) #6
  tail call void @ASN1_OCTET_STRING_free(ptr noundef nonnull %24) #6
  %82 = add nuw nsw i64 %.02846, 1
  %exitcond.not = icmp eq i64 %82, 18
  br i1 %exitcond.not, label %check_addr.exit.thread, label %1, !llvm.loop !28

check_addr.exit.thread:                           ; preds = %73, %67, %62, %59, %54, %81, %check_addr.exit, %49, %41, %30, %26, %21, %15, %9, %4, %1
  %.133 = phi ptr [ %2, %check_addr.exit ], [ %2, %49 ], [ %2, %41 ], [ %2, %30 ], [ %2, %26 ], [ %2, %21 ], [ %2, %15 ], [ %2, %9 ], [ %2, %4 ], [ %2, %1 ], [ null, %81 ], [ %2, %54 ], [ %2, %59 ], [ %2, %62 ], [ %2, %67 ], [ %2, %73 ]
  %.131 = phi ptr [ %13, %check_addr.exit ], [ %13, %49 ], [ %13, %41 ], [ %13, %30 ], [ %13, %26 ], [ %13, %21 ], [ %13, %15 ], [ %13, %9 ], [ null, %4 ], [ null, %1 ], [ null, %81 ], [ %13, %54 ], [ %13, %59 ], [ %13, %62 ], [ %13, %67 ], [ %13, %73 ]
  %.1 = phi ptr [ %24, %check_addr.exit ], [ %24, %49 ], [ %24, %41 ], [ %24, %30 ], [ %24, %26 ], [ %24, %21 ], [ null, %15 ], [ null, %9 ], [ null, %4 ], [ null, %1 ], [ null, %81 ], [ %24, %54 ], [ %24, %59 ], [ %24, %62 ], [ %24, %67 ], [ %24, %73 ]
  %.0 = phi i32 [ 0, %check_addr.exit ], [ 0, %49 ], [ 0, %41 ], [ 0, %30 ], [ 0, %26 ], [ 0, %21 ], [ 0, %15 ], [ 0, %9 ], [ 0, %4 ], [ 0, %1 ], [ 1, %81 ], [ 0, %54 ], [ 0, %59 ], [ 0, %62 ], [ 0, %67 ], [ 0, %73 ]
  tail call void @OPENSSL_sk_pop_free(ptr noundef %.133, ptr noundef nonnull @IPAddressFamily_free) #6
  tail call void @ASN1_OCTET_STRING_free(ptr noundef %.131) #6
  tail call void @ASN1_OCTET_STRING_free(ptr noundef %.1) #6
  ret i32 %.0
}